; Function Attrs: nounwind uwtable
define dso_local range(i32 -1, 1) i32 @xcpuinfo_init() local_unnamed_addr #0 {
  %1 = load i8, ptr @initialized, align 1, !range !8, !noundef !9
  %2 = trunc nuw i8 %1 to i1
  br i1 %2, label %6, label %3

3:                                                ; preds = %0
  %4 = tail call i32 @xcpuinfo_hwloc_topo_get(ptr noundef nonnull @procs, ptr noundef nonnull @boards, ptr noundef nonnull @sockets, ptr noundef nonnull @cores, ptr noundef nonnull @threads, ptr noundef nonnull @block_map_size, ptr noundef nonnull @block_map, ptr noundef nonnull @block_map_inv)
  %.not = icmp eq i32 %4, 0
  br i1 %.not, label %5, label %6

5:                                                ; preds = %3
  store i8 1, ptr @initialized, align 1
  br label %6

6:                                                ; preds = %3, %0, %5
  %.0 = phi i32 [ 0, %5 ], [ 0, %0 ], [ -1, %3 ]
  ret i32 %.0
}